; Function Attrs: nounwind sspstrong uwtable
define internal fastcc i64 @strscan_parse_integer(ptr noundef %0, i32 noundef range(i32 10, 17) %1, i64 noundef %2) unnamed_addr #0 {
  %4 = alloca i64, align 8
  call void @llvm.lifetime.start.p0(i64 8, ptr nonnull %4) #12
  %5 = add nsw i64 %2, 1
  %6 = icmp ult i64 %5, 1024
  br i1 %6, label %7, label %9

7:                                                ; preds = %3
  store i64 0, ptr %4, align 8, !tbaa !10
  %8 = alloca i8, i64 %5, align 16
  br label %13

9:                                                ; preds = %3
  %10 = add i64 %2, 8
  %11 = lshr i64 %10, 3
  %12 = call noalias nonnull ptr @rb_alloc_tmp_buffer_with_count(ptr noundef nonnull %4, i64 noundef range(i64 -9223372036854775807, -9223372036854775808) %5, i64 noundef %11) #16
  br label %13

13:                                               ; preds = %9, %7
  %14 = phi ptr [ %8, %7 ], [ %12, %9 ]
  %15 = getelementptr inbounds nuw i8, ptr %0, i64 8
  %16 = load i64, ptr %15, align 8, !tbaa !23
  %17 = inttoptr i64 %16 to ptr
  %18 = load i64, ptr %17, align 8, !tbaa !34, !noalias !123
  %19 = and i64 %18, 8192
  %.not.i.i = icmp eq i64 %19, 0
  %20 = getelementptr inbounds nuw i8, ptr %17, i64 24
  br i1 %.not.i.i, label %RSTRING_PTR.exit, label %21

21:                                               ; preds = %13
  %.sroa.2.0.copyload.i = load ptr, ptr %20, align 8
  br label %RSTRING_PTR.exit

RSTRING_PTR.exit:                                 ; preds = %13, %21
  %.sroa.2.0.i = phi ptr [ %.sroa.2.0.copyload.i, %21 ], [ %20, %13 ]
  %22 = getelementptr inbounds nuw i8, ptr %0, i64 24
  %.not.i = icmp eq i64 %2, 0
  br i1 %.not.i, label %ruby_nonempty_memcpy.exit, label %23

23:                                               ; preds = %RSTRING_PTR.exit
  %24 = load i64, ptr %22, align 8, !tbaa !29
  %25 = getelementptr inbounds i8, ptr %.sroa.2.0.i, i64 %24
  call void @llvm.memcpy.p0.p0.i64(ptr noundef nonnull align 1 %14, ptr noundef nonnull readonly align 1 %25, i64 noundef range(i64 1, 0) %2, i1 noundef false) #12
  br label %ruby_nonempty_memcpy.exit

ruby_nonempty_memcpy.exit:                        ; preds = %RSTRING_PTR.exit, %23
  %26 = getelementptr inbounds i8, ptr %14, i64 %2
  store i8 0, ptr %26, align 1, !tbaa !54
  %27 = call i64 @rb_cstr2inum(ptr noundef nonnull %14, i32 noundef %1) #12
  call void @rb_free_tmp_buffer(ptr noundef nonnull %4) #12
  %28 = load i64, ptr %22, align 8, !tbaa !29
  %29 = add nsw i64 %28, %2
  store i64 %29, ptr %22, align 8, !tbaa !29
  %30 = load i64, ptr %0, align 8, !tbaa !18
  %31 = or i64 %30, 1
  store i64 %31, ptr %0, align 8, !tbaa !18
  %32 = getelementptr inbounds nuw i8, ptr %0, i64 32
  call void @onig_region_clear(ptr noundef nonnull %32) #12
  %33 = getelementptr inbounds nuw i8, ptr %0, i64 64
  %34 = load i8, ptr %33, align 8, !tbaa !27, !range !41, !noundef !42
  %35 = trunc nuw i8 %34 to i1
  br i1 %35, label %36, label %41

36:                                               ; preds = %ruby_nonempty_memcpy.exit
  %37 = getelementptr inbounds nuw i8, ptr %0, i64 16
  %38 = load i64, ptr %37, align 8, !tbaa !28
  %39 = trunc i64 %38 to i32
  %40 = load i64, ptr %22, align 8, !tbaa !29
  br label %adjust_registers_to_matched.exit

41:                                               ; preds = %ruby_nonempty_memcpy.exit
  %42 = load i64, ptr %22, align 8, !tbaa !29
  %43 = getelementptr inbounds nuw i8, ptr %0, i64 16
  %44 = load i64, ptr %43, align 8, !tbaa !28
  %45 = sub nsw i64 %42, %44
  br label %adjust_registers_to_matched.exit

adjust_registers_to_matched.exit:                 ; preds = %36, %41
  %.sink9.i = phi i64 [ %45, %41 ], [ %40, %36 ]
  %.sink.i = phi i32 [ 0, %41 ], [ %39, %36 ]
  %46 = trunc i64 %.sink9.i to i32
  %47 = call i32 @onig_region_set(ptr noundef nonnull %32, i32 noundef 0, i32 noundef %.sink.i, i32 noundef %46) #12
  call void @llvm.lifetime.end.p0(i64 8, ptr nonnull %4) #12
  ret i64 %27
}